target datalayout = "e-m:e-p270:32:32-p271:32:32-p272:64:64-i64:64-i128:128-f80:128-n8:16:32:64-S128"
target triple = "x86_64-pc-linux-gnu"

%struct.timeout_params = type { i32, i8, i8, ptr, i64, i64, i32 }

@num_active_timeouts = internal global i32 0, align 4
@all_timeouts = internal global [23 x %struct.timeout_params] zeroinitializer, align 16
@.str.1 = private unnamed_addr constant [10 x i8] c"timeout.c\00", align 1
@active_timeouts = internal global [23 x ptr] zeroinitializer, align 16
@.str.4 = private unnamed_addr constant [36 x i8] c"timeout index %d out of range 0..%d\00", align 1
@__func__.insert_timeout = private unnamed_addr constant [15 x i8] c"insert_timeout\00", align 1
@__func__.remove_timeout_index = private unnamed_addr constant [21 x i8] c"remove_timeout_index\00", align 1

; Function Attrs: nounwind uwtable
define internal void @insert_timeout(i32 noundef %0, i32 noundef %1) #0 {
  %3 = alloca i32, align 4
  %4 = alloca i32, align 4
  %5 = alloca i32, align 4
  store i32 %0, ptr %3, align 4
  store i32 %1, ptr %4, align 4
  call void @llvm.lifetime.start.p0(i64 4, ptr %5) #6
  %6 = load i32, ptr %4, align 4
  %7 = icmp slt i32 %6, 0
  br i1 %7, label %12, label %8

8:                                                ; preds = %2
  %9 = load i32, ptr %4, align 4
  %10 = load volatile i32, ptr @num_active_timeouts, align 4
  %11 = icmp sgt i32 %9, %10
  br i1 %11, label %12, label %25

12:                                               ; preds = %8, %2
  br label %13

13:                                               ; preds = %12
  br i1 true, label %14, label %16

14:                                               ; preds = %13
  %15 = call zeroext i1 @errstart_cold(i32 noundef 22, ptr noundef null) #7
  br i1 %15, label %18, label %22

16:                                               ; preds = %13
  %17 = call zeroext i1 @errstart(i32 noundef 22, ptr noundef null)
  br i1 %17, label %18, label %22

18:                                               ; preds = %16, %14
  %19 = load i32, ptr %4, align 4
  %20 = load volatile i32, ptr @num_active_timeouts, align 4
  %21 = call i32 (ptr, ...) @errmsg_internal(ptr noundef @.str.4, i32 noundef %19, i32 noundef %20)
  call void @errfinish(ptr noundef @.str.1, i32 noundef 120, ptr noundef @__func__.insert_timeout)
  br label %22

22:                                               ; preds = %18, %16, %14
  unreachable

23:                                               ; No predecessors!
  br label %24

24:                                               ; preds = %23
  br label %25

25:                                               ; preds = %24, %8
  %26 = load i32, ptr %3, align 4
  %27 = zext i32 %26 to i64
  %28 = getelementptr inbounds nuw [23 x %struct.timeout_params], ptr @all_timeouts, i64 0, i64 %27
  %29 = getelementptr inbounds nuw %struct.timeout_params, ptr %28, i32 0, i32 1
  store volatile i8 1, ptr %29, align 4
  %30 = load volatile i32, ptr @num_active_timeouts, align 4
  %31 = sub i32 %30, 1
  store i32 %31, ptr %5, align 4
  br label %32

32:                                               ; preds = %45, %25
  %33 = load i32, ptr %5, align 4
  %34 = load i32, ptr %4, align 4
  %35 = icmp sge i32 %33, %34
  br i1 %35, label %36, label %48

36:                                               ; preds = %32
  %37 = load i32, ptr %5, align 4
  %38 = sext i32 %37 to i64
  %39 = getelementptr inbounds [23 x ptr], ptr @active_timeouts, i64 0, i64 %38
  %40 = load volatile ptr, ptr %39, align 8
  %41 = load i32, ptr %5, align 4
  %42 = add i32 %41, 1
  %43 = sext i32 %42 to i64
  %44 = getelementptr inbounds [23 x ptr], ptr @active_timeouts, i64 0, i64 %43
  store volatile ptr %40, ptr %44, align 8
  br label %45

45:                                               ; preds = %36
  %46 = load i32, ptr %5, align 4
  %47 = add i32 %46, -1
  store i32 %47, ptr %5, align 4
  br label %32, !llvm.loop !17

48:                                               ; preds = %32
  %49 = load i32, ptr %3, align 4
  %50 = zext i32 %49 to i64
  %51 = getelementptr inbounds nuw [23 x %struct.timeout_params], ptr @all_timeouts, i64 0, i64 %50
  %52 = load i32, ptr %4, align 4
  %53 = sext i32 %52 to i64
  %54 = getelementptr inbounds [23 x ptr], ptr @active_timeouts, i64 0, i64 %53
  store volatile ptr %51, ptr %54, align 8
  %55 = load volatile i32, ptr @num_active_timeouts, align 4
  %56 = add i32 %55, 1
  store volatile i32 %56, ptr @num_active_timeouts, align 4
  call void @llvm.lifetime.end.p0(i64 4, ptr %5) #6
  ret void
}

; Function Attrs: nounwind uwtable
define internal void @remove_timeout_index(i32 noundef %0) #0 {
  %2 = alloca i32, align 4
  %3 = alloca i32, align 4
  store i32 %0, ptr %2, align 4
  call void @llvm.lifetime.start.p0(i64 4, ptr %3) #6
  %4 = load i32, ptr %2, align 4
  %5 = icmp slt i32 %4, 0
  br i1 %5, label %10, label %6

6:                                                ; preds = %1
  %7 = load i32, ptr %2, align 4
  %8 = load volatile i32, ptr @num_active_timeouts, align 4
  %9 = icmp sge i32 %7, %8
  br i1 %9, label %10, label %24

10:                                               ; preds = %6, %1
  br label %11

11:                                               ; preds = %10
  br i1 true, label %12, label %14

12:                                               ; preds = %11
  %13 = call zeroext i1 @errstart_cold(i32 noundef 22, ptr noundef null) #7
  br i1 %13, label %16, label %21

14:                                               ; preds = %11
  %15 = call zeroext i1 @errstart(i32 noundef 22, ptr noundef null)
  br i1 %15, label %16, label %21

16:                                               ; preds = %14, %12
  %17 = load i32, ptr %2, align 4
  %18 = load volatile i32, ptr @num_active_timeouts, align 4
  %19 = sub i32 %18, 1
  %20 = call i32 (ptr, ...) @errmsg_internal(ptr noundef @.str.4, i32 noundef %17, i32 noundef %19)
  call void @errfinish(ptr noundef @.str.1, i32 noundef 143, ptr noundef @__func__.remove_timeout_index)
  br label %21

21:                                               ; preds = %16, %14, %12
  unreachable

22:                                               ; No predecessors!
  br label %23

23:                                               ; preds = %22
  br label %24

24:                                               ; preds = %23, %6
  %25 = load i32, ptr %2, align 4
  %26 = sext i32 %25 to i64
  %27 = getelementptr inbounds [23 x ptr], ptr @active_timeouts, i64 0, i64 %26
  %28 = load volatile ptr, ptr %27, align 8
  %29 = getelementptr inbounds nuw %struct.timeout_params, ptr %28, i32 0, i32 1
  store volatile i8 0, ptr %29, align 4
  %30 = load i32, ptr %2, align 4
  %31 = add i32 %30, 1
  store i32 %31, ptr %3, align 4
  br label %32

32:                                               ; preds = %45, %24
  %33 = load i32, ptr %3, align 4
  %34 = load volatile i32, ptr @num_active_timeouts, align 4
  %35 = icmp slt i32 %33, %34
  br i1 %35, label %36, label %48

36:                                               ; preds = %32
  %37 = load i32, ptr %3, align 4
  %38 = sext i32 %37 to i64
  %39 = getelementptr inbounds [23 x ptr], ptr @active_timeouts, i64 0, i64 %38
  %40 = load volatile ptr, ptr %39, align 8
  %41 = load i32, ptr %3, align 4
  %42 = sub i32 %41, 1
  %43 = sext i32 %42 to i64
  %44 = getelementptr inbounds [23 x ptr], ptr @active_timeouts, i64 0, i64 %43
  store volatile ptr %40, ptr %44, align 8
  br label %45

45:                                               ; preds = %36
  %46 = load i32, ptr %3, align 4
  %47 = add i32 %46, 1
  store i32 %47, ptr %3, align 4
  br label %32, !llvm.loop !13

48:                                               ; preds = %32
  %49 = load volatile i32, ptr @num_active_timeouts, align 4
  %50 = add i32 %49, -1
  store volatile i32 %50, ptr @num_active_timeouts, align 4
  call void @llvm.lifetime.end.p0(i64 4, ptr %3) #6
  ret void
}

; Function Attrs: nounwind uwtable
define internal i32 @find_active_timeout(i32 noundef %0) #0 {
  %2 = alloca i32, align 4
  %3 = alloca i32, align 4
  %4 = alloca i32, align 4
  %5 = alloca i32, align 4
  store i32 %0, ptr %3, align 4
  call void @llvm.lifetime.start.p0(i64 4, ptr %4) #6
  store i32 0, ptr %4, align 4
  br label %6

6:                                                ; preds = %22, %1
  %7 = load i32, ptr %4, align 4
  %8 = load volatile i32, ptr @num_active_timeouts, align 4
  %9 = icmp slt i32 %7, %8
  br i1 %9, label %10, label %25

10:                                               ; preds = %6
  %11 = load i32, ptr %4, align 4
  %12 = sext i32 %11 to i64
  %13 = getelementptr inbounds [23 x ptr], ptr @active_timeouts, i64 0, i64 %12
  %14 = load volatile ptr, ptr %13, align 8
  %15 = getelementptr inbounds nuw %struct.timeout_params, ptr %14, i32 0, i32 0
  %16 = load i32, ptr %15, align 8
  %17 = load i32, ptr %3, align 4
  %18 = icmp eq i32 %16, %17
  br i1 %18, label %19, label %21

19:                                               ; preds = %10
  %20 = load i32, ptr %4, align 4
  store i32 %20, ptr %2, align 4
  store i32 1, ptr %5, align 4
  br label %26

21:                                               ; preds = %10
  br label %22

22:                                               ; preds = %21
  %23 = load i32, ptr %4, align 4
  %24 = add i32 %23, 1
  store i32 %24, ptr %4, align 4
  br label %6, !llvm.loop !14

25:                                               ; preds = %6
  store i32 -1, ptr %2, align 4
  store i32 1, ptr %5, align 4
  br label %26

26:                                               ; preds = %25, %19
  call void @llvm.lifetime.end.p0(i64 4, ptr %4) #6
  %27 = load i32, ptr %2, align 4
  ret i32 %27
}

; Function Attrs: nounwind uwtable
define internal void @enable_timeout(i32 noundef %0, i64 noundef %1, i64 noundef %2, i32 noundef %3) #0 {
  %5 = alloca i32, align 4
  %6 = alloca i64, align 8
  %7 = alloca i64, align 8
  %8 = alloca i32, align 4
  %9 = alloca i32, align 4
  %10 = alloca ptr, align 8
  %11 = alloca i32, align 4
  store i32 %0, ptr %5, align 4
  store i64 %1, ptr %6, align 8
  store i64 %2, ptr %7, align 8
  store i32 %3, ptr %8, align 4
  call void @llvm.lifetime.start.p0(i64 4, ptr %9) #6
  %12 = load i32, ptr %5, align 4
  %13 = zext i32 %12 to i64
  %14 = getelementptr inbounds nuw [23 x %struct.timeout_params], ptr @all_timeouts, i64 0, i64 %13
  %15 = getelementptr inbounds nuw %struct.timeout_params, ptr %14, i32 0, i32 1
  %16 = load volatile i8, ptr %15, align 4, !range !8, !noundef !9
  %17 = trunc i8 %16 to i1
  br i1 %17, label %18, label %21

18:                                               ; preds = %4
  %19 = load i32, ptr %5, align 4
  %20 = call i32 @find_active_timeout(i32 noundef %19)
  call void @remove_timeout_index(i32 noundef %20)
  br label %21

21:                                               ; preds = %18, %4
  store i32 0, ptr %9, align 4
  br label %22

22:                                               ; preds = %54, %21
  %23 = load i32, ptr %9, align 4
  %24 = load volatile i32, ptr @num_active_timeouts, align 4
  %25 = icmp slt i32 %23, %24
  br i1 %25, label %26, label %57

26:                                               ; preds = %22
  call void @llvm.lifetime.start.p0(i64 8, ptr %10) #6
  %27 = load i32, ptr %9, align 4
  %28 = sext i32 %27 to i64
  %29 = getelementptr inbounds [23 x ptr], ptr @active_timeouts, i64 0, i64 %28
  %30 = load volatile ptr, ptr %29, align 8
  store ptr %30, ptr %10, align 8
  %31 = load i64, ptr %7, align 8
  %32 = load ptr, ptr %10, align 8
  %33 = getelementptr inbounds nuw %struct.timeout_params, ptr %32, i32 0, i32 5
  %34 = load i64, ptr %33, align 8
  %35 = icmp slt i64 %31, %34
  br i1 %35, label %36, label %37

36:                                               ; preds = %26
  store i32 2, ptr %11, align 4
  br label %51

37:                                               ; preds = %26
  %38 = load i64, ptr %7, align 8
  %39 = load ptr, ptr %10, align 8
  %40 = getelementptr inbounds nuw %struct.timeout_params, ptr %39, i32 0, i32 5
  %41 = load i64, ptr %40, align 8
  %42 = icmp eq i64 %38, %41
  br i1 %42, label %43, label %50

43:                                               ; preds = %37
  %44 = load i32, ptr %5, align 4
  %45 = load ptr, ptr %10, align 8
  %46 = getelementptr inbounds nuw %struct.timeout_params, ptr %45, i32 0, i32 0
  %47 = load i32, ptr %46, align 8
  %48 = icmp ult i32 %44, %47
  br i1 %48, label %49, label %50

49:                                               ; preds = %43
  store i32 2, ptr %11, align 4
  br label %51

50:                                               ; preds = %43, %37
  store i32 0, ptr %11, align 4
  br label %51

51:                                               ; preds = %50, %49, %36
  call void @llvm.lifetime.end.p0(i64 8, ptr %10) #6
  %52 = load i32, ptr %11, align 4
  switch i32 %52, label %79 [
    i32 0, label %53
    i32 2, label %57
  ]

53:                                               ; preds = %51
  br label %54

54:                                               ; preds = %53
  %55 = load i32, ptr %9, align 4
  %56 = add i32 %55, 1
  store i32 %56, ptr %9, align 4
  br label %22, !llvm.loop !11

57:                                               ; preds = %51, %22
  %58 = load i32, ptr %5, align 4
  %59 = zext i32 %58 to i64
  %60 = getelementptr inbounds nuw [23 x %struct.timeout_params], ptr @all_timeouts, i64 0, i64 %59
  %61 = getelementptr inbounds nuw %struct.timeout_params, ptr %60, i32 0, i32 2
  store volatile i8 0, ptr %61, align 1
  %62 = load i64, ptr %6, align 8
  %63 = load i32, ptr %5, align 4
  %64 = zext i32 %63 to i64
  %65 = getelementptr inbounds nuw [23 x %struct.timeout_params], ptr @all_timeouts, i64 0, i64 %64
  %66 = getelementptr inbounds nuw %struct.timeout_params, ptr %65, i32 0, i32 4
  store i64 %62, ptr %66, align 8
  %67 = load i64, ptr %7, align 8
  %68 = load i32, ptr %5, align 4
  %69 = zext i32 %68 to i64
  %70 = getelementptr inbounds nuw [23 x %struct.timeout_params], ptr @all_timeouts, i64 0, i64 %69
  %71 = getelementptr inbounds nuw %struct.timeout_params, ptr %70, i32 0, i32 5
  store i64 %67, ptr %71, align 8
  %72 = load i32, ptr %8, align 4
  %73 = load i32, ptr %5, align 4
  %74 = zext i32 %73 to i64
  %75 = getelementptr inbounds nuw [23 x %struct.timeout_params], ptr @all_timeouts, i64 0, i64 %74
  %76 = getelementptr inbounds nuw %struct.timeout_params, ptr %75, i32 0, i32 6
  store i32 %72, ptr %76, align 8
  %77 = load i32, ptr %5, align 4
  %78 = load i32, ptr %9, align 4
  call void @insert_timeout(i32 noundef %77, i32 noundef %78)
  call void @llvm.lifetime.end.p0(i64 4, ptr %9) #6
  ret void

79:                                               ; preds = %51
  unreachable
}