; Function Attrs: nounwind uwtable
define internal fastcc void @enable_timeout(i32 noundef %0, i64 noundef %1, i64 noundef %2, i32 noundef %3) unnamed_addr #0 {
  %5 = zext i32 %0 to i64
  %6 = getelementptr inbounds nuw [23 x %struct.timeout_params], ptr @all_timeouts, i64 0, i64 %5
  %7 = getelementptr inbounds nuw i8, ptr %6, i64 4
  %8 = load volatile i8, ptr %7, align 4, !range !9, !noundef !10
  %9 = trunc nuw i8 %8 to i1
  br i1 %9, label %10, label %43

10:                                               ; preds = %4
  %11 = load volatile i32, ptr @num_active_timeouts, align 4
  %12 = icmp sgt i32 %11, 0
  br i1 %12, label %.lr.ph.i, label %find_active_timeout.exit.thread

.lr.ph.i:                                         ; preds = %10, %18
  %indvars.iv.i = phi i64 [ %indvars.iv.next.i, %18 ], [ 0, %10 ]
  %13 = getelementptr inbounds nuw [23 x ptr], ptr @active_timeouts, i64 0, i64 %indvars.iv.i
  %14 = load volatile ptr, ptr %13, align 8
  %15 = load i32, ptr %14, align 8
  %16 = icmp eq i32 %15, %0
  %17 = load volatile i32, ptr @num_active_timeouts, align 4
  br i1 %16, label %find_active_timeout.exit, label %18

18:                                               ; preds = %.lr.ph.i
  %indvars.iv.next.i = add nuw nsw i64 %indvars.iv.i, 1
  %19 = sext i32 %17 to i64
  %20 = icmp slt i64 %indvars.iv.next.i, %19
  br i1 %20, label %.lr.ph.i, label %find_active_timeout.exit.thread, !llvm.loop !11

find_active_timeout.exit:                         ; preds = %.lr.ph.i
  %21 = trunc nuw nsw i64 %indvars.iv.i to i32
  %.not.i = icmp sgt i32 %17, %21
  br i1 %.not.i, label %26, label %find_active_timeout.exit.thread

find_active_timeout.exit.thread:                  ; preds = %18, %10, %find_active_timeout.exit
  %.06.i29 = phi i32 [ %21, %find_active_timeout.exit ], [ -1, %10 ], [ -1, %18 ]
  %22 = tail call zeroext i1 @errstart_cold(i32 noundef 22, ptr noundef null) #11
  tail call void @llvm.assume(i1 %22)
  %23 = load volatile i32, ptr @num_active_timeouts, align 4
  %24 = add i32 %23, -1
  %25 = tail call i32 (ptr, ...) @errmsg_internal(ptr noundef nonnull @.str.4, i32 noundef %.06.i29, i32 noundef %24) #10
  tail call void @errfinish(ptr noundef nonnull @.str.1, i32 noundef 143, ptr noundef nonnull @__func__.remove_timeout_index) #10
  unreachable

26:                                               ; preds = %find_active_timeout.exit
  %27 = and i64 %indvars.iv.i, 4294967295
  %28 = getelementptr inbounds nuw [23 x ptr], ptr @active_timeouts, i64 0, i64 %27
  %29 = load volatile ptr, ptr %28, align 8
  %30 = getelementptr inbounds nuw i8, ptr %29, i64 4
  store volatile i8 0, ptr %30, align 4
  %.010.i = add nuw nsw i32 %21, 1
  %31 = load volatile i32, ptr @num_active_timeouts, align 4
  %32 = icmp slt i32 %.010.i, %31
  br i1 %32, label %.lr.ph.preheader.i, label %remove_timeout_index.exit

.lr.ph.preheader.i:                               ; preds = %26
  %33 = zext nneg i32 %.010.i to i64
  br label %.lr.ph.i23

.lr.ph.i23:                                       ; preds = %.lr.ph.i23, %.lr.ph.preheader.i
  %indvars.iv.i24 = phi i64 [ %33, %.lr.ph.preheader.i ], [ %indvars.iv.next.i25, %.lr.ph.i23 ]
  %.0.in11.i = phi i64 [ %indvars.iv.i, %.lr.ph.preheader.i ], [ %indvars.iv.i24, %.lr.ph.i23 ]
  %34 = getelementptr inbounds nuw [23 x ptr], ptr @active_timeouts, i64 0, i64 %indvars.iv.i24
  %35 = load volatile ptr, ptr %34, align 8
  %sext = shl i64 %.0.in11.i, 32
  %36 = ashr exact i64 %sext, 32
  %37 = getelementptr inbounds [23 x ptr], ptr @active_timeouts, i64 0, i64 %36
  store volatile ptr %35, ptr %37, align 8
  %indvars.iv.next.i25 = add nuw nsw i64 %indvars.iv.i24, 1
  %38 = load volatile i32, ptr @num_active_timeouts, align 4
  %39 = sext i32 %38 to i64
  %40 = icmp slt i64 %indvars.iv.next.i25, %39
  br i1 %40, label %.lr.ph.i23, label %remove_timeout_index.exit, !llvm.loop !6

remove_timeout_index.exit:                        ; preds = %.lr.ph.i23, %26
  %41 = load volatile i32, ptr @num_active_timeouts, align 4
  %42 = add i32 %41, -1
  store volatile i32 %42, ptr @num_active_timeouts, align 4
  br label %43

43:                                               ; preds = %remove_timeout_index.exit, %4
  %44 = load volatile i32, ptr @num_active_timeouts, align 4
  %45 = icmp sgt i32 %44, 0
  br i1 %45, label %.lr.ph, label %.loopexit

.lr.ph:                                           ; preds = %43, %57
  %.02033 = phi i32 [ %58, %57 ], [ 0, %43 ]
  %46 = zext nneg i32 %.02033 to i64
  %47 = getelementptr inbounds nuw [23 x ptr], ptr @active_timeouts, i64 0, i64 %46
  %48 = load volatile ptr, ptr %47, align 8
  %49 = getelementptr inbounds nuw i8, ptr %48, i64 24
  %50 = load i64, ptr %49, align 8
  %51 = icmp slt i64 %2, %50
  br i1 %51, label %.loopexit, label %52

52:                                               ; preds = %.lr.ph
  %53 = icmp eq i64 %2, %50
  br i1 %53, label %54, label %57

54:                                               ; preds = %52
  %55 = load i32, ptr %48, align 8
  %56 = icmp ult i32 %0, %55
  br i1 %56, label %.loopexit, label %57

57:                                               ; preds = %54, %52
  %58 = add nuw nsw i32 %.02033, 1
  %59 = load volatile i32, ptr @num_active_timeouts, align 4
  %60 = icmp slt i32 %58, %59
  br i1 %60, label %.lr.ph, label %.loopexit, !llvm.loop !12

.loopexit:                                        ; preds = %54, %.lr.ph, %57, %43
  %.020.lcssa = phi i32 [ 0, %43 ], [ %.02033, %54 ], [ %.02033, %.lr.ph ], [ %58, %57 ]
  %61 = getelementptr inbounds nuw i8, ptr %6, i64 5
  store volatile i8 0, ptr %61, align 1
  %62 = getelementptr inbounds nuw i8, ptr %6, i64 16
  store i64 %1, ptr %62, align 8
  %63 = getelementptr inbounds nuw i8, ptr %6, i64 24
  store i64 %2, ptr %63, align 8
  %64 = getelementptr inbounds nuw i8, ptr %6, i64 32
  store i32 %3, ptr %64, align 8
  %65 = load volatile i32, ptr @num_active_timeouts, align 4
  %66 = icmp sgt i32 %.020.lcssa, %65
  br i1 %66, label %67, label %71

67:                                               ; preds = %.loopexit
  %68 = tail call zeroext i1 @errstart_cold(i32 noundef 22, ptr noundef null) #11
  tail call void @llvm.assume(i1 %68)
  %69 = load volatile i32, ptr @num_active_timeouts, align 4
  %70 = tail call i32 (ptr, ...) @errmsg_internal(ptr noundef nonnull @.str.4, i32 noundef %.020.lcssa, i32 noundef %69) #10
  tail call void @errfinish(ptr noundef nonnull @.str.1, i32 noundef 120, ptr noundef nonnull @__func__.insert_timeout) #10
  unreachable

71:                                               ; preds = %.loopexit
  store volatile i8 1, ptr %7, align 4
  %72 = load volatile i32, ptr @num_active_timeouts, align 4
  %.012.i = add i32 %72, -1
  %.not13.i = icmp slt i32 %.012.i, %.020.lcssa
  br i1 %.not13.i, label %insert_timeout.exit, label %.lr.ph.i26.preheader

.lr.ph.i26.preheader:                             ; preds = %71
  %73 = sext i32 %.012.i to i64
  %74 = sext i32 %.020.lcssa to i64
  br label %.lr.ph.i26

.lr.ph.i26:                                       ; preds = %.lr.ph.i26.preheader, %.lr.ph.i26
  %indvars.iv = phi i64 [ %73, %.lr.ph.i26.preheader ], [ %indvars.iv.next, %.lr.ph.i26 ]
  %.0.in14.i = phi i32 [ %72, %.lr.ph.i26.preheader ], [ %79, %.lr.ph.i26 ]
  %75 = getelementptr inbounds nuw [23 x ptr], ptr @active_timeouts, i64 0, i64 %indvars.iv
  %76 = load volatile ptr, ptr %75, align 8
  %77 = sext i32 %.0.in14.i to i64
  %78 = getelementptr inbounds [23 x ptr], ptr @active_timeouts, i64 0, i64 %77
  store volatile ptr %76, ptr %78, align 8
  %indvars.iv.next = add nsw i64 %indvars.iv, -1
  %.not.i27.not = icmp sgt i64 %indvars.iv, %74
  %79 = trunc nuw nsw i64 %indvars.iv to i32
  br i1 %.not.i27.not, label %.lr.ph.i26, label %insert_timeout.exit, !llvm.loop !13

insert_timeout.exit:                              ; preds = %.lr.ph.i26, %71
  %80 = zext nneg i32 %.020.lcssa to i64
  %81 = getelementptr inbounds nuw [23 x ptr], ptr @active_timeouts, i64 0, i64 %80
  store volatile ptr %6, ptr %81, align 8
  %82 = load volatile i32, ptr @num_active_timeouts, align 4
  %83 = add i32 %82, 1
  store volatile i32 %83, ptr @num_active_timeouts, align 4
  ret void
}